#include <math.h>
#include <stdio.h>
#include <stdlib.h>
#include <string.h>
#define LEN 100
#define ASCII 100
#define MAX_N 100
#define MAX_N 100
#define L 100
#define MAX 100
#define ASC 100
#define null 0
#define Len 100
#define M 100
#define SUM 100
#define NUMBER 100
#define SIZE 100
#define N 100
#define Max 100
#define X 100
#define Y 100
#define A 100
#define MAXN 100
#define MAXSIZE 100
struct student
{
	char stu[100];
	struct student *next;
};
int n;

struct student *creat(void)
{
	struct student *head,*p1,*p2,*toil;
	n=0;
	head=NULL;
	p1=p2=(struct student*)malloc(LEN);
	gets(p1->stu);
	while(strcmp(p1->stu,"end")!=0)
	{
		n=n+1;
		if(n==1)head=p1;
		else p1->next=p2;
		p2=p1;
		p1=(struct student*)malloc(LEN);
		gets(p1->stu);
	}
	toil=p2;
	head->next=NULL;
	return(toil);
}

void print(struct student *toil)
{
	struct student *p;
	p=toil;
	if(toil!=NULL)
		do
		{
			printf("%s\n",p->stu);
			p=p->next;
		}while(p!=NULL);
}

void main()
{
	struct student *head;
	head=creat();
	print(head);
}



